; Function Attrs: mustprogress nounwind uwtable
define hidden void @_ZN9Arguments10add_stringEPPPcPiPKc(ptr nocapture noundef %0, ptr nocapture noundef %1, ptr noundef %2) local_unnamed_addr #0 align 2 {
  %4 = icmp eq ptr %2, null
  br i1 %4, label %22, label %5

5:                                                ; preds = %3
  %6 = load i32, ptr %1, align 4
  %7 = add nsw i32 %6, 1
  %8 = load ptr, ptr %0, align 8
  %9 = icmp eq ptr %8, null
  %10 = sext i32 %7 to i64
  %11 = shl nsw i64 %10, 3
  br i1 %9, label %12, label %14

12:                                               ; preds = %5
  %13 = tail call noundef ptr @_Z12AllocateHeapm8MEMFLAGSN17AllocFailStrategy13AllocFailEnumE(i64 noundef %11, i8 noundef zeroext 19, i32 noundef 0) #31
  br label %16

14:                                               ; preds = %5
  %15 = tail call noundef ptr @_Z14ReallocateHeapPcm8MEMFLAGSN17AllocFailStrategy13AllocFailEnumE(ptr noundef nonnull %8, i64 noundef %11, i8 noundef zeroext 19, i32 noundef 0) #31
  br label %16

16:                                               ; preds = %14, %12
  %storemerge = phi ptr [ %15, %14 ], [ %13, %12 ]
  store ptr %storemerge, ptr %0, align 8
  %17 = tail call noundef ptr @_ZN2os16strdup_check_oomEPKc8MEMFLAGS(ptr noundef nonnull %2, i8 noundef zeroext 9) #31
  %18 = load ptr, ptr %0, align 8
  %19 = load i32, ptr %1, align 4
  %20 = sext i32 %19 to i64
  %21 = getelementptr inbounds ptr, ptr %18, i64 %20
  store ptr %17, ptr %21, align 8
  store i32 %7, ptr %1, align 4
  br label %22

22:                                               ; preds = %3, %16
  ret void
}